; Function Attrs: nounwind uwtable
define range(i32 0, 2) i32 @ossl_quic_stream_map_schedule_stop_sending(ptr noundef %0, ptr noundef %1) local_unnamed_addr #0 {
  %3 = getelementptr inbounds nuw i8, ptr %1, i64 256
  %4 = load i64, ptr %3, align 8
  %5 = and i64 %4, 67108864
  %.not = icmp eq i64 %5, 0
  br i1 %.not, label %12, label %6

6:                                                ; preds = %2
  %7 = and i64 %4, 17179869184
  %.not6 = icmp eq i64 %7, 0
  br i1 %.not6, label %8, label %12

8:                                                ; preds = %6
  %9 = lshr i64 %4, 16
  %trunc = trunc i64 %9 to i8
  %trunc.off = add i8 %trunc, -1
  %switch = icmp ult i8 %trunc.off, 2
  br i1 %switch, label %10, label %12

10:                                               ; preds = %8
  %11 = or disjoint i64 %4, 17179869184
  store i64 %11, ptr %3, align 8
  tail call void @ossl_quic_stream_map_update_state(ptr noundef %0, ptr noundef nonnull %1)
  br label %12

12:                                               ; preds = %8, %6, %2, %10
  %.0 = phi i32 [ 1, %10 ], [ 0, %2 ], [ 1, %6 ], [ 1, %8 ]
  ret i32 %.0
}